; Function Attrs: null_pointer_is_valid sspstrong uwtable
define internal i32 @dissect_v5dl(ptr noundef %0, ptr noundef %1, ptr noundef %2, ptr readnone captures(none) %3) #0 {
  %5 = getelementptr inbounds nuw i8, ptr %1, i64 8
  %6 = load ptr, ptr %5, align 8
  tail call void @col_set_str(ptr noundef %6, i32 noundef 35, ptr noundef nonnull @.str.41)
  %7 = load ptr, ptr %5, align 8
  tail call void @col_clear(ptr noundef %7, i32 noundef 25)
  %8 = tail call zeroext i16 @tvb_get_ntohs(ptr noundef %0, i32 noundef 0)
  %9 = zext i16 %8 to i32
  %10 = lshr i16 %8, 1
  %11 = and i16 %10, 127
  %12 = lshr i16 %8, 3
  %13 = and i16 %12, 8064
  %14 = or disjoint i16 %13, %11
  %15 = getelementptr inbounds nuw i8, ptr %1, i64 348
  %16 = load i32, ptr %15, align 4
  switch i32 %16, label %22 [
    i32 1, label %17
    i32 0, label %19
  ]

17:                                               ; preds = %4
  %18 = and i16 %8, 512
  %.not = icmp eq i16 %18, 0
  br label %22

19:                                               ; preds = %4
  %20 = and i16 %8, 512
  %21 = icmp ne i16 %20, 0
  br label %22

22:                                               ; preds = %4, %19, %17
  %.066 = phi i1 [ %.not, %17 ], [ %21, %19 ], [ false, %4 ]
  %.064 = phi ptr [ @.str.56, %17 ], [ @.str.57, %19 ], [ @.str.55, %4 ]
  %.063 = phi ptr [ @.str.57, %17 ], [ @.str.56, %19 ], [ @.str.55, %4 ]
  %23 = load ptr, ptr %5, align 8
  tail call void @col_set_str(ptr noundef %23, i32 noundef 20, ptr noundef nonnull %.064)
  %24 = load ptr, ptr %5, align 8
  tail call void @col_set_str(ptr noundef %24, i32 noundef 18, ptr noundef nonnull %.063)
  %.not69 = icmp eq ptr %2, null
  br i1 %.not69, label %56, label %25

25:                                               ; preds = %22
  %26 = load i32, ptr @proto_v5dl, align 4
  %27 = tail call ptr @proto_tree_add_item(ptr noundef nonnull %2, i32 noundef %26, ptr noundef %0, i32 noundef 0, i32 noundef -1, i32 noundef 0)
  %28 = load i32, ptr @ett_v5dl, align 4
  %29 = tail call ptr @proto_item_add_subtree(ptr noundef %27, i32 noundef %28)
  %.not70 = icmp eq i32 %16, -1
  br i1 %.not70, label %proto_item_set_generated.exit, label %30

30:                                               ; preds = %25
  %31 = load i32, ptr @hf_v5dl_direction, align 4
  %32 = load i32, ptr %15, align 4
  %33 = tail call ptr @proto_tree_add_uint(ptr noundef %29, i32 noundef %31, ptr noundef %0, i32 noundef 0, i32 noundef 0, i32 noundef %32)
  %.not.i = icmp eq ptr %33, null
  br i1 %.not.i, label %proto_item_set_generated.exit, label %34

34:                                               ; preds = %30
  %35 = getelementptr inbounds nuw i8, ptr %33, i64 40
  %36 = load ptr, ptr %35, align 8
  %.not5.i = icmp eq ptr %36, null
  br i1 %.not5.i, label %proto_item_set_generated.exit, label %37

37:                                               ; preds = %34
  %38 = getelementptr inbounds nuw i8, ptr %36, i64 28
  %39 = load i32, ptr %38, align 4
  %40 = or i32 %39, 2
  store i32 %40, ptr %38, align 4
  br label %proto_item_set_generated.exit

proto_item_set_generated.exit:                    ; preds = %37, %34, %30, %25
  %41 = load i32, ptr @hf_v5dl_ef, align 4
  %42 = zext nneg i16 %14 to i32
  %43 = tail call ptr @proto_tree_add_uint(ptr noundef %29, i32 noundef %41, ptr noundef %0, i32 noundef 0, i32 noundef 2, i32 noundef %42)
  %44 = load i32, ptr @ett_v5dl_address, align 4
  %45 = tail call ptr @proto_item_add_subtree(ptr noundef %43, i32 noundef %44)
  %46 = load i32, ptr @hf_v5dl_eah, align 4
  %47 = tail call ptr @proto_tree_add_uint(ptr noundef %45, i32 noundef %46, ptr noundef %0, i32 noundef 0, i32 noundef 1, i32 noundef %9)
  %48 = load i32, ptr @hf_v5dl_cr, align 4
  %49 = tail call ptr @proto_tree_add_uint(ptr noundef %45, i32 noundef %48, ptr noundef %0, i32 noundef 0, i32 noundef 1, i32 noundef %9)
  %50 = load i32, ptr @hf_v5dl_ea1, align 4
  %51 = tail call ptr @proto_tree_add_uint(ptr noundef %45, i32 noundef %50, ptr noundef %0, i32 noundef 0, i32 noundef 1, i32 noundef %9)
  %52 = load i32, ptr @hf_v5dl_eal, align 4
  %53 = tail call ptr @proto_tree_add_uint(ptr noundef %45, i32 noundef %52, ptr noundef %0, i32 noundef 1, i32 noundef 1, i32 noundef %9)
  %54 = load i32, ptr @hf_v5dl_ea2, align 4
  %55 = tail call ptr @proto_tree_add_uint(ptr noundef %45, i32 noundef %54, ptr noundef %0, i32 noundef 1, i32 noundef 1, i32 noundef %9)
  br label %56

56:                                               ; preds = %22, %proto_item_set_generated.exit
  %.065 = phi ptr [ %27, %proto_item_set_generated.exit ], [ null, %22 ]
  %.0 = phi ptr [ %29, %proto_item_set_generated.exit ], [ null, %22 ]
  %57 = load i32, ptr @hf_v5dl_control, align 4
  %58 = load i32, ptr @ett_v5dl_control, align 4
  %59 = tail call i32 @dissect_xdlc_control(ptr noundef %0, i32 noundef 2, ptr noundef %1, ptr noundef %.0, i32 noundef %57, i32 noundef %58, ptr noundef nonnull @v5dl_cf_items, ptr noundef nonnull @v5dl_cf_items_ext, ptr noundef null, ptr noundef null, i1 noundef zeroext %.066, i1 noundef zeroext true, i1 noundef zeroext false)
  %60 = and i32 %59, 65535
  %61 = and i32 %59, 3
  %62 = icmp eq i32 %61, 3
  %63 = select i1 %62, i32 3, i32 4
  br i1 %.not69, label %65, label %64

64:                                               ; preds = %56
  tail call void @proto_item_set_len(ptr noundef %.065, i32 noundef %63)
  br label %65

65:                                               ; preds = %64, %56
  %66 = tail call ptr @tvb_new_subset_remaining(ptr noundef %0, i32 noundef %63)
  %67 = and i32 %59, 1
  %68 = icmp eq i32 %67, 0
  %69 = icmp eq i32 %60, 3
  %or.cond = or i1 %68, %69
  br i1 %or.cond, label %70, label %73

70:                                               ; preds = %65
  %71 = load ptr, ptr @v52_handle, align 8
  %72 = tail call i32 @call_dissector(ptr noundef %71, ptr noundef %66, ptr noundef %1, ptr noundef %2)
  br label %73

73:                                               ; preds = %65, %70
  %74 = tail call i32 @tvb_captured_length(ptr noundef %0)
  ret i32 %74
}